target datalayout = "e-m:e-p270:32:32-p271:32:32-p272:64:64-i64:64-i128:128-f80:128-n8:16:32:64-S128"
target triple = "x86_64-pc-linux-gnu"

; Function Attrs: mustprogress nounwind uwtable
define noundef i32 @_ZN7glslang13TIntermediate22getBaseAlignmentScalarERKNS_5TTypeERi(ptr noundef nonnull align 8 dereferenceable(152) %0, ptr noundef nonnull align 4 dereferenceable(4) %1) #0 align 2 {
  %3 = alloca i32, align 4
  %4 = alloca ptr, align 8
  %5 = alloca ptr, align 8
  store ptr %0, ptr %4, align 8
  store ptr %1, ptr %5, align 8
  %6 = load ptr, ptr %4, align 8
  %7 = load ptr, ptr %6, align 8
  %8 = getelementptr inbounds ptr, ptr %7, i64 7
  %9 = load ptr, ptr %8, align 8
  %10 = call noundef i32 %9(ptr noundef nonnull align 8 dereferenceable(152) %6)
  switch i32 %10, label %37 [
    i32 10, label %11
    i32 11, label %11
    i32 2, label %11
    i32 3, label %13
    i32 4, label %15
    i32 5, label %15
    i32 6, label %17
    i32 7, label %17
    i32 18, label %19
    i32 14, label %21
  ]

11:                                               ; preds = %2, %2, %2
  %12 = load ptr, ptr %5, align 8
  store i32 8, ptr %12, align 4
  store i32 8, ptr %3, align 4
  br label %39

13:                                               ; preds = %2
  %14 = load ptr, ptr %5, align 8
  store i32 2, ptr %14, align 4
  store i32 2, ptr %3, align 4
  br label %39

15:                                               ; preds = %2, %2
  %16 = load ptr, ptr %5, align 8
  store i32 1, ptr %16, align 4
  store i32 1, ptr %3, align 4
  br label %39

17:                                               ; preds = %2, %2
  %18 = load ptr, ptr %5, align 8
  store i32 2, ptr %18, align 4
  store i32 2, ptr %3, align 4
  br label %39

19:                                               ; preds = %2
  %20 = load ptr, ptr %5, align 8
  store i32 8, ptr %20, align 4
  store i32 8, ptr %3, align 4
  br label %39

21:                                               ; preds = %2
  %22 = load ptr, ptr %4, align 8
  %23 = load ptr, ptr %22, align 8
  %24 = getelementptr inbounds ptr, ptr %23, i64 46
  %25 = load ptr, ptr %24, align 8
  %26 = call noundef zeroext i1 %25(ptr noundef nonnull align 8 dereferenceable(152) %22)
  br i1 %26, label %33, label %27

27:                                               ; preds = %21
  %28 = load ptr, ptr %4, align 8
  %29 = load ptr, ptr %28, align 8
  %30 = getelementptr inbounds ptr, ptr %29, i64 47
  %31 = load ptr, ptr %30, align 8
  %32 = call noundef zeroext i1 %31(ptr noundef nonnull align 8 dereferenceable(152) %28)
  br i1 %32, label %33, label %35

33:                                               ; preds = %27, %21
  %34 = load ptr, ptr %5, align 8
  store i32 8, ptr %34, align 4
  store i32 8, ptr %3, align 4
  br label %39

35:                                               ; preds = %27
  %36 = load ptr, ptr %5, align 8
  store i32 4, ptr %36, align 4
  store i32 4, ptr %3, align 4
  br label %39

37:                                               ; preds = %2
  %38 = load ptr, ptr %5, align 8
  store i32 4, ptr %38, align 4
  store i32 4, ptr %3, align 4
  br label %39

39:                                               ; preds = %37, %35, %33, %19, %17, %15, %13, %11
  %40 = load i32, ptr %3, align 4
  ret i32 %40
}