; Function Attrs: mustprogress nounwind uwtable
define noundef range(i32 1, 9) i32 @_ZN7glslang13TIntermediate22getBaseAlignmentScalarERKNS_5TTypeERi(ptr noundef nonnull align 8 dereferenceable(152) %0, ptr nocapture noundef nonnull writeonly align 4 dereferenceable(4) %1) local_unnamed_addr #0 align 2 {
  %3 = load ptr, ptr %0, align 8
  %4 = getelementptr inbounds i8, ptr %3, i64 56
  %5 = load ptr, ptr %4, align 8
  %6 = tail call noundef i32 %5(ptr noundef nonnull align 8 dereferenceable(152) %0) #18
  switch i32 %6, label %20 [
    i32 10, label %21
    i32 11, label %21
    i32 2, label %21
    i32 3, label %7
    i32 4, label %8
    i32 5, label %8
    i32 6, label %9
    i32 7, label %9
    i32 18, label %21
    i32 14, label %10
  ]

7:                                                ; preds = %2
  br label %21

8:                                                ; preds = %2, %2
  br label %21

9:                                                ; preds = %2, %2
  br label %21

10:                                               ; preds = %2
  %11 = load ptr, ptr %0, align 8
  %12 = getelementptr inbounds i8, ptr %11, i64 368
  %13 = load ptr, ptr %12, align 8
  %14 = tail call noundef zeroext i1 %13(ptr noundef nonnull align 8 dereferenceable(152) %0) #18
  br i1 %14, label %21, label %15

15:                                               ; preds = %10
  %16 = load ptr, ptr %0, align 8
  %17 = getelementptr inbounds i8, ptr %16, i64 376
  %18 = load ptr, ptr %17, align 8
  %19 = tail call noundef zeroext i1 %18(ptr noundef nonnull align 8 dereferenceable(152) %0) #18
  %spec.select = select i1 %19, i32 8, i32 4
  br label %21

20:                                               ; preds = %2
  br label %21

21:                                               ; preds = %15, %10, %2, %2, %2, %2, %20, %9, %8, %7
  %.sink = phi i32 [ 4, %20 ], [ 2, %9 ], [ 1, %8 ], [ 2, %7 ], [ 8, %2 ], [ 8, %2 ], [ 8, %2 ], [ 8, %2 ], [ 8, %10 ], [ %spec.select, %15 ]
  store i32 %.sink, ptr %1, align 4
  ret i32 %.sink
}